; Function Attrs: mustprogress nofree norecurse nosync nounwind willreturn memory(none) uwtable
define noundef zeroext i1 @_ZN13MarchingCubes12HasEdgeRootsEhi(i8 noundef zeroext %0, i32 noundef %1) local_unnamed_addr #0 align 2 {
  %3 = ashr i32 %1, 2
  %4 = and i32 %1, 1
  %5 = lshr i32 %1, 1
  %6 = and i32 %5, 1
  switch i32 %3, label %_ZN4Cube11EdgeCornersEiRiS0_.exit [
    i32 0, label %7
    i32 1, label %12
    i32 2, label %16
  ]

7:                                                ; preds = %2
  %8 = shl nuw nsw i32 %6, 2
  %9 = shl nuw nsw i32 %4, 1
  %10 = or disjoint i32 %8, %9
  %11 = or disjoint i32 %10, 1
  br label %_ZN4Cube11EdgeCornersEiRiS0_.exit

12:                                               ; preds = %2
  %13 = shl nuw nsw i32 %6, 2
  %14 = or disjoint i32 %13, %4
  %15 = or disjoint i32 %14, 2
  br label %_ZN4Cube11EdgeCornersEiRiS0_.exit

16:                                               ; preds = %2
  %urem.i = and i32 %1, 3
  %17 = or disjoint i32 %urem.i, 4
  br label %_ZN4Cube11EdgeCornersEiRiS0_.exit

_ZN4Cube11EdgeCornersEiRiS0_.exit:                ; preds = %7, %12, %16, %2
  %.1 = phi i32 [ undef, %2 ], [ %urem.i, %16 ], [ %14, %12 ], [ %10, %7 ]
  %.0 = phi i32 [ undef, %2 ], [ %17, %16 ], [ %15, %12 ], [ %11, %7 ]
  %18 = zext i8 %0 to i32
  %19 = sext i32 %.1 to i64
  %20 = getelementptr inbounds [8 x i32], ptr @_ZN13MarchingCubes9cornerMapE, i64 0, i64 %19
  %21 = load i32, ptr %20, align 4
  %22 = shl nuw i32 1, %21
  %23 = and i32 %22, %18
  %.not = icmp eq i32 %23, 0
  %24 = sext i32 %.0 to i64
  %25 = getelementptr inbounds [8 x i32], ptr @_ZN13MarchingCubes9cornerMapE, i64 0, i64 %24
  %26 = load i32, ptr %25, align 4
  %27 = shl nuw i32 1, %26
  %28 = and i32 %27, %18
  %.not5 = icmp eq i32 %28, 0
  %29 = xor i1 %.not, %.not5
  ret i1 %29
}